; Function Attrs: mustprogress uwtable
define dso_local noundef zeroext i1 @_ZN3igl6opengl4glfw6Viewer8mouse_upENS2_11MouseButtonEi(ptr noundef nonnull align 16 dereferenceable(616) initializes((176, 177)) %0, i32 noundef %1, i32 noundef %2) local_unnamed_addr #0 align 2 {
  %4 = alloca i32, align 4
  %5 = alloca i32, align 4
  %6 = getelementptr inbounds nuw i8, ptr %0, i64 176
  store i8 0, ptr %6, align 16, !tbaa !134
  %7 = getelementptr inbounds nuw i8, ptr %0, i64 96
  %8 = getelementptr inbounds nuw i8, ptr %0, i64 104
  %9 = load ptr, ptr %8, align 8, !tbaa !11
  %10 = load ptr, ptr %7, align 16, !tbaa !15
  %.not = icmp eq ptr %9, %10
  br i1 %.not, label %._crit_edge, label %.lr.ph

11:                                               ; preds = %.lr.ph
  %12 = add i32 %.0916, 1
  %13 = zext i32 %12 to i64
  %14 = load ptr, ptr %8, align 8, !tbaa !11
  %15 = load ptr, ptr %7, align 16, !tbaa !15
  %16 = ptrtoint ptr %14 to i64
  %17 = ptrtoint ptr %15 to i64
  %18 = sub i64 %16, %17
  %19 = ashr exact i64 %18, 3
  %20 = icmp ugt i64 %19, %13
  br i1 %20, label %.lr.ph, label %._crit_edge, !llvm.loop !135

.lr.ph:                                           ; preds = %3, %11
  %21 = phi ptr [ %15, %11 ], [ %10, %3 ]
  %22 = phi i64 [ %13, %11 ], [ 0, %3 ]
  %.0916 = phi i32 [ %12, %11 ], [ 0, %3 ]
  %23 = getelementptr inbounds nuw ptr, ptr %21, i64 %22
  %24 = load ptr, ptr %23, align 8, !tbaa !16
  %25 = load ptr, ptr %24, align 8, !tbaa !18
  %26 = getelementptr inbounds nuw i8, ptr %25, i64 104
  %27 = load ptr, ptr %26, align 8
  %28 = tail call noundef zeroext i1 %27(ptr noundef nonnull align 8 dereferenceable(48) %24, i32 noundef %1, i32 noundef %2)
  br i1 %28, label %.loopexit, label %11

._crit_edge:                                      ; preds = %11, %3
  %29 = getelementptr inbounds nuw i8, ptr %0, i64 328
  %30 = load ptr, ptr %29, align 8, !tbaa !71
  %.not.i.i.not = icmp eq ptr %30, null
  br i1 %.not.i.i.not, label %35, label %_ZNKSt8functionIFbRN3igl6opengl4glfw6ViewerEiiEEclES4_ii.exit

_ZNKSt8functionIFbRN3igl6opengl4glfw6ViewerEiiEEclES4_ii.exit: ; preds = %._crit_edge
  %31 = getelementptr inbounds nuw i8, ptr %0, i64 312
  call void @llvm.lifetime.start.p0(i64 4, ptr nonnull %4)
  call void @llvm.lifetime.start.p0(i64 4, ptr nonnull %5)
  store i32 %1, ptr %4, align 4, !tbaa !73
  store i32 %2, ptr %5, align 4, !tbaa !73
  %32 = getelementptr inbounds nuw i8, ptr %0, i64 336
  %33 = load ptr, ptr %32, align 16, !tbaa !74
  %34 = call noundef zeroext i1 %33(ptr noundef nonnull align 8 dereferenceable(32) %31, ptr noundef nonnull align 16 dereferenceable(616) %0, ptr noundef nonnull align 4 dereferenceable(4) %4, ptr noundef nonnull align 4 dereferenceable(4) %5)
  call void @llvm.lifetime.end.p0(i64 4, ptr nonnull %4)
  call void @llvm.lifetime.end.p0(i64 4, ptr nonnull %5)
  br i1 %34, label %.loopexit, label %35

35:                                               ; preds = %_ZNKSt8functionIFbRN3igl6opengl4glfw6ViewerEiiEEclES4_ii.exit, %._crit_edge
  store i32 0, ptr %0, align 16, !tbaa !136
  br label %.loopexit

.loopexit:                                        ; preds = %.lr.ph, %_ZNKSt8functionIFbRN3igl6opengl4glfw6ViewerEiiEEclES4_ii.exit, %35
  ret i1 true
}